; Function Attrs: mustprogress uwtable
define noundef nonnull ptr @_ZN8nanobind6detail13bool_from_objEP7_object(ptr noundef %0) local_unnamed_addr #15 {
  %2 = tail call i32 @PyObject_IsTrue(ptr noundef %0)
  %3 = icmp eq i32 %2, -1
  br i1 %3, label %4, label %5

4:                                                ; preds = %1
  tail call void @_ZN8nanobind6detail18raise_python_errorEv() #28
  unreachable

5:                                                ; preds = %1
  %6 = icmp eq i32 %2, 1
  %7 = select i1 %6, ptr @_Py_TrueStruct, ptr @_Py_FalseStruct
  ret ptr %7
}